target datalayout = "e-m:e-p270:32:32-p271:32:32-p272:64:64-i64:64-i128:128-f80:128-n8:16:32:64-S128"
target triple = "x86_64-pc-linux-gnu"

%struct.Gia_Man_t_ = type { ptr, ptr, i32, i32, i32, i32, ptr, ptr, i32, i32, i32, ptr, ptr, %struct.Vec_Int_t_, %struct.Vec_Int_t_, i32, i32, i32, %struct.Vec_Int_t_, ptr, ptr, ptr, i32, i32, i32, i32, ptr, ptr, ptr, ptr, ptr, i32, i32, ptr, i32, ptr, ptr, ptr, ptr, ptr, ptr, ptr, ptr, ptr, ptr, ptr, ptr, ptr, ptr, ptr, ptr, ptr, ptr, %struct.Vec_Int_t_, %struct.Vec_Int_t_, ptr, ptr, ptr, ptr, ptr, ptr, ptr, ptr, ptr, ptr, ptr, ptr, ptr, ptr, ptr, ptr, ptr, ptr, ptr, ptr, ptr, i32, float, float, ptr, ptr, i32, ptr, ptr, ptr, ptr, ptr, ptr, ptr, ptr, ptr, ptr, ptr, ptr, ptr, ptr, ptr, i64, i64, ptr, ptr, i32, i32, i32, i32, i32, i32, i32, i32, i32, i32, i32, i32, ptr, ptr, ptr, ptr, ptr, ptr, ptr, ptr, i32, i32, i32, ptr, i32, i32, ptr, ptr, ptr, ptr, ptr, ptr, i32, i32, ptr, %struct.Vec_Int_t_, %struct.Vec_Int_t_, %struct.Vec_Int_t_, ptr, ptr, ptr, i32, i32, i32, i32, ptr, ptr, ptr, ptr, ptr }
%struct.Vec_Int_t_ = type { i32, i32, ptr }

; Function Attrs: inlinehint nounwind uwtable
define internal i32 @Vec_IntSize(ptr noundef %0) #2 {
  %2 = alloca ptr, align 8
  store ptr %0, ptr %2, align 8, !tbaa !8
  %3 = load ptr, ptr %2, align 8, !tbaa !8
  %4 = getelementptr inbounds nuw %struct.Vec_Int_t_, ptr %3, i32 0, i32 1
  %5 = load i32, ptr %4, align 4, !tbaa !41
  ret i32 %5
}

; Function Attrs: inlinehint nounwind uwtable
define internal i32 @Gia_ManCiNum(ptr noundef %0) #2 {
  %2 = alloca ptr, align 8
  store ptr %0, ptr %2, align 8, !tbaa !3
  %3 = load ptr, ptr %2, align 8, !tbaa !3
  %4 = getelementptr inbounds nuw %struct.Gia_Man_t_, ptr %3, i32 0, i32 11
  %5 = load ptr, ptr %4, align 8, !tbaa !12
  %6 = call i32 @Vec_IntSize(ptr noundef %5)
  ret i32 %6
}

; Function Attrs: nounwind uwtable
define ptr @Bmc_CollapseOne3(ptr noundef %0, i32 noundef %1, i32 noundef %2, i32 noundef %3, i32 noundef %4, i32 noundef %5) #0 {
  %7 = alloca ptr, align 8
  %8 = alloca i32, align 4
  %9 = alloca i32, align 4
  %10 = alloca i32, align 4
  %11 = alloca i32, align 4
  %12 = alloca i32, align 4
  %13 = alloca ptr, align 8
  %14 = alloca ptr, align 8
  %15 = alloca ptr, align 8
  %16 = alloca ptr, align 8
  %17 = alloca ptr, align 8
  %18 = alloca ptr, align 8
  store ptr %0, ptr %7, align 8, !tbaa !3
  store i32 %1, ptr %8, align 4, !tbaa !10
  store i32 %2, ptr %9, align 4, !tbaa !10
  store i32 %3, ptr %10, align 4, !tbaa !10
  store i32 %4, ptr %11, align 4, !tbaa !10
  store i32 %5, ptr %12, align 4, !tbaa !10
  call void @llvm.lifetime.start.p0(i64 8, ptr %13) #11
  %19 = load ptr, ptr %7, align 8, !tbaa !3
  %20 = call ptr @Mf_ManGenerateCnf(ptr noundef %19, i32 noundef 8, i32 noundef 0, i32 noundef 0, i32 noundef 0, i32 noundef 0)
  store ptr %20, ptr %13, align 8, !tbaa !129
  call void @llvm.lifetime.start.p0(i64 8, ptr %14) #11
  %21 = load ptr, ptr %13, align 8, !tbaa !129
  %22 = call ptr @Cnf_DataWriteIntoSolver(ptr noundef %21, i32 noundef 1, i32 noundef 0)
  store ptr %22, ptr %14, align 8, !tbaa !72
  call void @llvm.lifetime.start.p0(i64 8, ptr %15) #11
  %23 = load ptr, ptr %13, align 8, !tbaa !129
  %24 = call ptr @Cnf_DataWriteIntoSolver(ptr noundef %23, i32 noundef 1, i32 noundef 0)
  store ptr %24, ptr %15, align 8, !tbaa !72
  call void @llvm.lifetime.start.p0(i64 8, ptr %16) #11
  %25 = load ptr, ptr %13, align 8, !tbaa !129
  %26 = call ptr @Cnf_DataWriteIntoSolver(ptr noundef %25, i32 noundef 1, i32 noundef 0)
  store ptr %26, ptr %16, align 8, !tbaa !72
  call void @llvm.lifetime.start.p0(i64 8, ptr %17) #11
  %27 = load ptr, ptr %13, align 8, !tbaa !129
  %28 = call ptr @Cnf_DataWriteIntoSolver(ptr noundef %27, i32 noundef 1, i32 noundef 0)
  store ptr %28, ptr %17, align 8, !tbaa !72
  call void @llvm.lifetime.start.p0(i64 8, ptr %18) #11
  %29 = load ptr, ptr %14, align 8, !tbaa !72
  %30 = load ptr, ptr %15, align 8, !tbaa !72
  %31 = load ptr, ptr %16, align 8, !tbaa !72
  %32 = load ptr, ptr %17, align 8, !tbaa !72
  %33 = load ptr, ptr %7, align 8, !tbaa !3
  %34 = call i32 @Gia_ManCiNum(ptr noundef %33)
  %35 = load i32, ptr %8, align 4, !tbaa !10
  %36 = load i32, ptr %9, align 4, !tbaa !10
  %37 = load i32, ptr %10, align 4, !tbaa !10
  %38 = load i32, ptr %11, align 4, !tbaa !10
  %39 = load i32, ptr %12, align 4, !tbaa !10
  %40 = call ptr @Bmc_CollapseOne_int3(ptr noundef %29, ptr noundef %30, ptr noundef %31, ptr noundef %32, i32 noundef %34, i32 noundef %35, i32 noundef %36, i32 noundef %37, i32 noundef %38, i32 noundef %39)
  store ptr %40, ptr %18, align 8, !tbaa !67
  %41 = load ptr, ptr %14, align 8, !tbaa !72
  call void @sat_solver_delete(ptr noundef %41)
  %42 = load ptr, ptr %15, align 8, !tbaa !72
  call void @sat_solver_delete(ptr noundef %42)
  %43 = load ptr, ptr %16, align 8, !tbaa !72
  call void @sat_solver_delete(ptr noundef %43)
  %44 = load ptr, ptr %17, align 8, !tbaa !72
  call void @sat_solver_delete(ptr noundef %44)
  %45 = load ptr, ptr %13, align 8, !tbaa !129
  call void @Cnf_DataFree(ptr noundef %45)
  %46 = load ptr, ptr %18, align 8, !tbaa !67
  call void @llvm.lifetime.end.p0(i64 8, ptr %18) #11
  call void @llvm.lifetime.end.p0(i64 8, ptr %17) #11
  call void @llvm.lifetime.end.p0(i64 8, ptr %16) #11
  call void @llvm.lifetime.end.p0(i64 8, ptr %15) #11
  call void @llvm.lifetime.end.p0(i64 8, ptr %14) #11
  call void @llvm.lifetime.end.p0(i64 8, ptr %13) #11
  ret ptr %46
}